target datalayout = "e-m:e-p270:32:32-p271:32:32-p272:64:64-i64:64-i128:128-f80:128-n8:16:32:64-S128"
target triple = "x86_64-pc-linux-gnu"

%class.QObject = type { ptr, %class.QScopedPointer }
%class.QScopedPointer = type { ptr }
%class.QString = type { %struct.QArrayDataPointer }
%struct.QArrayDataPointer = type { ptr, ptr, i64 }
%class.TrafficDataFilterProxy = type { %class.QSortFilterProxyModel, %class.QList, i32, i32, %class.QString }
%class.QSortFilterProxyModel = type { %class.QAbstractProxyModel }
%class.QAbstractProxyModel = type { %class.QAbstractItemModel }
%class.QAbstractItemModel = type { %class.QObject }
%class.QList = type { %struct.QArrayDataPointer.0 }
%struct.QArrayDataPointer.0 = type { ptr, ptr, i64 }

; Function Attrs: mustprogress uwtable
define void @_ZN22TrafficDataFilterProxy15filterForColumnEii7QString(ptr noundef nonnull align 8 dereferenceable(72) %0, i32 noundef %1, i32 noundef %2, ptr noundef %3) #0 align 2 {
  %5 = alloca ptr, align 8
  %6 = alloca i32, align 4
  %7 = alloca i32, align 4
  %8 = alloca ptr, align 8
  store ptr %0, ptr %5, align 8
  store i32 %1, ptr %6, align 4
  store i32 %2, ptr %7, align 4
  store ptr %3, ptr %8, align 8
  %9 = load ptr, ptr %5, align 8
  %10 = load i32, ptr %7, align 4
  %11 = icmp slt i32 %10, 0
  br i1 %11, label %15, label %12

12:                                               ; preds = %4
  %13 = load i32, ptr %7, align 4
  %14 = icmp sgt i32 %13, 2
  br i1 %14, label %15, label %16

15:                                               ; preds = %12, %4
  store i32 -1, ptr %6, align 4
  br label %16

16:                                               ; preds = %15, %12
  %17 = load i32, ptr %6, align 4
  %18 = call noundef i32 @_ZNK22TrafficDataFilterProxy17mapToSourceColumnEi(ptr noundef nonnull align 8 dereferenceable(72) %9, i32 noundef %17)
  %19 = getelementptr inbounds %class.TrafficDataFilterProxy, ptr %9, i32 0, i32 2
  store i32 %18, ptr %19, align 8
  %20 = load i32, ptr %7, align 4
  %21 = getelementptr inbounds %class.TrafficDataFilterProxy, ptr %9, i32 0, i32 3
  store i32 %20, ptr %21, align 4
  %22 = getelementptr inbounds %class.TrafficDataFilterProxy, ptr %9, i32 0, i32 4
  %23 = call noundef nonnull align 8 dereferenceable(24) ptr @_ZN7QStringaSERKS_(ptr noundef nonnull align 8 dereferenceable(24) %22, ptr noundef nonnull align 8 dereferenceable(24) %3) #9
  call void @_ZN21QSortFilterProxyModel16invalidateFilterEv(ptr noundef nonnull align 8 dereferenceable(16) %9)
  ret void
}