; Function Attrs: mustprogress uwtable
define void @_ZN22TrafficDataFilterProxy15filterForColumnEii7QString(ptr noundef nonnull align 8 dereferenceable(72) %0, i32 noundef %1, i32 noundef %2, ptr noundef %3) #0 align 2 {
  %or.cond = icmp ugt i32 %2, 2
  %spec.select = select i1 %or.cond, i32 -1, i32 %1
  %5 = tail call noundef i32 @_ZNK22TrafficDataFilterProxy17mapToSourceColumnEi(ptr noundef nonnull align 8 dereferenceable(72) %0, i32 noundef %spec.select)
  %6 = getelementptr inbounds i8, ptr %0, i64 40
  store i32 %5, ptr %6, align 8
  %7 = getelementptr inbounds i8, ptr %0, i64 44
  store i32 %2, ptr %7, align 4
  %8 = getelementptr inbounds i8, ptr %0, i64 48
  %9 = tail call noundef nonnull align 8 dereferenceable(24) ptr @_ZN7QStringaSERKS_(ptr noundef nonnull align 8 dereferenceable(24) %8, ptr noundef nonnull align 8 dereferenceable(24) %3) #24
  tail call void @_ZN21QSortFilterProxyModel16invalidateFilterEv(ptr noundef nonnull align 8 dereferenceable(16) %0)
  ret void
}